; ModuleID = '43/581.c'
source_filename = "43/581.c"
target datalayout = "e-m:e-p270:32:32-p271:32:32-p272:64:64-i64:64-f80:128-n8:16:32:64-S128"
target triple = "x86_64-pc-linux-gnu"

@.str = private unnamed_addr constant [3 x i8] c"%d\00", align 1
@.str.1 = private unnamed_addr constant [7 x i8] c"%d %d\0A\00", align 1

; Function Attrs: noinline nounwind uwtable
define dso_local i32 @main() #0 {
  %1 = alloca i32, align 4
  %2 = alloca i32, align 4
  %3 = alloca i32, align 4
  %4 = alloca i32, align 4
  %5 = alloca i32, align 4
  %6 = alloca i32, align 4
  store i32 0, i32* %1, align 4
  store i32 0, i32* %5, align 4
  store i32 0, i32* %6, align 4
  %7 = call i32 (i8*, ...) @__isoc99_scanf(i8* getelementptr inbounds ([3 x i8], [3 x i8]* @.str, i64 0, i64 0), i32* %2)
  %8 = load i32, i32* %2, align 4
  %9 = icmp sgt i32 %8, 5
  br i1 %9, label %10, label %82

10:                                               ; preds = %0
  %11 = load i32, i32* %2, align 4
  %12 = srem i32 %11, 2
  %13 = icmp eq i32 %12, 0
  br i1 %13, label %14, label %82

14:                                               ; preds = %10
  %15 = load i32, i32* %2, align 4
  %16 = icmp slt i32 %15, 10001
  br i1 %16, label %17, label %82

17:                                               ; preds = %14
  store i32 3, i32* %3, align 4
  br label %18

18:                                               ; preds = %78, %17
  %19 = load i32, i32* %3, align 4
  %20 = load i32, i32* %2, align 4
  %21 = sdiv i32 %20, 2
  %22 = icmp sle i32 %19, %21
  br i1 %22, label %23, label %81

23:                                               ; preds = %18
  store i32 3, i32* %4, align 4
  br label %24

24:                                               ; preds = %42, %23
  %25 = load i32, i32* %4, align 4
  %26 = load i32, i32* %3, align 4
  %27 = icmp slt i32 %25, %26
  br i1 %27, label %28, label %45

28:                                               ; preds = %24
  %29 = load i32, i32* %3, align 4
  %30 = load i32, i32* %4, align 4
  %31 = srem i32 %29, %30
  %32 = icmp eq i32 %31, 0
  br i1 %32, label %40, label %33

33:                                               ; preds = %28
  %34 = load i32, i32* %2, align 4
  %35 = load i32, i32* %3, align 4
  %36 = sub nsw i32 %34, %35
  %37 = load i32, i32* %4, align 4
  %38 = srem i32 %36, %37
  %39 = icmp eq i32 %38, 0
  br i1 %39, label %40, label %41

40:                                               ; preds = %33, %28
  store i32 1, i32* %5, align 4
  br label %45

41:                                               ; preds = %33
  br label %42

42:                                               ; preds = %41
  %43 = load i32, i32* %4, align 4
  %44 = add nsw i32 %43, 2
  store i32 %44, i32* %4, align 4
  br label %24

45:                                               ; preds = %40, %24
  %46 = load i32, i32* %3, align 4
  store i32 %46, i32* %4, align 4
  br label %47

47:                                               ; preds = %62, %45
  %48 = load i32, i32* %4, align 4
  %49 = load i32, i32* %2, align 4
  %50 = load i32, i32* %3, align 4
  %51 = sub nsw i32 %49, %50
  %52 = icmp slt i32 %48, %51
  br i1 %52, label %53, label %65

53:                                               ; preds = %47
  %54 = load i32, i32* %2, align 4
  %55 = load i32, i32* %3, align 4
  %56 = sub nsw i32 %54, %55
  %57 = load i32, i32* %4, align 4
  %58 = srem i32 %56, %57
  %59 = icmp eq i32 %58, 0
  br i1 %59, label %60, label %61

60:                                               ; preds = %53
  store i32 1, i32* %6, align 4
  br label %65

61:                                               ; preds = %53
  br label %62

62:                                               ; preds = %61
  %63 = load i32, i32* %4, align 4
  %64 = add nsw i32 %63, 2
  store i32 %64, i32* %4, align 4
  br label %47

65:                                               ; preds = %60, %47
  %66 = load i32, i32* %5, align 4
  %67 = icmp eq i32 %66, 0
  br i1 %67, label %68, label %77

68:                                               ; preds = %65
  %69 = load i32, i32* %6, align 4
  %70 = icmp eq i32 %69, 0
  br i1 %70, label %71, label %77

71:                                               ; preds = %68
  %72 = load i32, i32* %3, align 4
  %73 = load i32, i32* %2, align 4
  %74 = load i32, i32* %3, align 4
  %75 = sub nsw i32 %73, %74
  %76 = call i32 (i8*, ...) @printf(i8* getelementptr inbounds ([7 x i8], [7 x i8]* @.str.1, i64 0, i64 0), i32 %72, i32 %75)
  br label %77

77:                                               ; preds = %71, %68, %65
  store i32 0, i32* %5, align 4
  store i32 0, i32* %6, align 4
  br label %78

78:                                               ; preds = %77
  %79 = load i32, i32* %3, align 4
  %80 = add nsw i32 %79, 2
  store i32 %80, i32* %3, align 4
  br label %18

81:                                               ; preds = %18
  br label %82

82:                                               ; preds = %81, %14, %10, %0
  ret i32 0
}

declare dso_local i32 @__isoc99_scanf(i8*, ...) #1

declare dso_local i32 @printf(i8*, ...) #1


!llvm.module.flags = !{!0}
!llvm.ident = !{!1}

!0 = !{i32 1, !"wchar_size", i32 4}
!1 = !{!"clang version 10.0.0-4ubuntu1 "}
